target datalayout = "e-m:e-p270:32:32-p271:32:32-p272:64:64-i64:64-i128:128-f80:128-n8:16:32:64-S128"
target triple = "x86_64-pc-linux-gnu"

@hf_cigi3_3_symbol_line_definition_symbol_id = internal global i32 0, align 4
@hf_cigi3_3_symbol_line_definition_primitive_type = internal global i32 0, align 4
@hf_cigi3_3_symbol_line_definition_stipple_pattern = internal global i32 0, align 4
@hf_cigi3_3_symbol_line_definition_line_width = internal global i32 0, align 4
@hf_cigi3_3_symbol_line_definition_stipple_pattern_length = internal global i32 0, align 4
@hf_cigi3_3_symbol_line_definition_vertex_u = internal global [29 x i32] zeroinitializer, align 16
@hf_cigi3_3_symbol_line_definition_vertex_v = internal global [29 x i32] zeroinitializer, align 16
@cigi_byte_order = internal global i32 0, align 4
@cigi_minor_version = internal global i32 0, align 4
@.str.2896 = private unnamed_addr constant [30 x i8] c"epan/dissectors/packet-cigi.c\00", align 1
@.str.2897 = private unnamed_addr constant [51 x i8] c"%s:%u: failed assertion nvertices < 30 (%ld < %ld)\00", align 1

; Function Attrs: null_pointer_is_valid sspstrong uwtable
define internal i32 @cigi3_3_add_symbol_line_definition(ptr noundef %0, ptr noundef %1, ptr noundef %2, ptr noundef %3) #0 {
  %5 = alloca i32, align 4
  %6 = alloca ptr, align 8
  %7 = alloca ptr, align 8
  %8 = alloca ptr, align 8
  %9 = alloca ptr, align 8
  %10 = alloca i32, align 4
  %11 = alloca i32, align 4
  %12 = alloca i32, align 4
  %13 = alloca i32, align 4
  store ptr %0, ptr %6, align 8
  store ptr %1, ptr %7, align 8
  store ptr %2, ptr %8, align 8
  store ptr %3, ptr %9, align 8
  call void @llvm.lifetime.start.p0(i64 4, ptr %10) #5
  store i32 0, ptr %10, align 4
  call void @llvm.lifetime.start.p0(i64 4, ptr %11) #5
  call void @llvm.lifetime.start.p0(i64 4, ptr %12) #5
  %14 = load i32, ptr @cigi_minor_version, align 4
  %15 = icmp slt i32 %14, 3
  br i1 %15, label %16, label %18

16:                                               ; preds = %4
  %17 = load i32, ptr %10, align 4
  store i32 %17, ptr %5, align 4
  store i32 1, ptr %13, align 4
  br label %103

18:                                               ; preds = %4
  %19 = load ptr, ptr %8, align 8
  %20 = load i32, ptr @hf_cigi3_3_symbol_line_definition_symbol_id, align 4
  %21 = load ptr, ptr %6, align 8
  %22 = load i32, ptr %10, align 4
  %23 = load i32, ptr @cigi_byte_order, align 4
  %24 = call ptr @proto_tree_add_item(ptr noundef %19, i32 noundef %20, ptr noundef %21, i32 noundef %22, i32 noundef 2, i32 noundef %23)
  %25 = load i32, ptr %10, align 4
  %26 = add i32 %25, 2
  store i32 %26, ptr %10, align 4
  %27 = load ptr, ptr %8, align 8
  %28 = load i32, ptr @hf_cigi3_3_symbol_line_definition_primitive_type, align 4
  %29 = load ptr, ptr %6, align 8
  %30 = load i32, ptr %10, align 4
  %31 = load i32, ptr @cigi_byte_order, align 4
  %32 = call ptr @proto_tree_add_item(ptr noundef %27, i32 noundef %28, ptr noundef %29, i32 noundef %30, i32 noundef 1, i32 noundef %31)
  %33 = load i32, ptr %10, align 4
  %34 = add i32 %33, 2
  store i32 %34, ptr %10, align 4
  %35 = load ptr, ptr %8, align 8
  %36 = load i32, ptr @hf_cigi3_3_symbol_line_definition_stipple_pattern, align 4
  %37 = load ptr, ptr %6, align 8
  %38 = load i32, ptr %10, align 4
  %39 = load i32, ptr @cigi_byte_order, align 4
  %40 = call ptr @proto_tree_add_item(ptr noundef %35, i32 noundef %36, ptr noundef %37, i32 noundef %38, i32 noundef 2, i32 noundef %39)
  %41 = load i32, ptr %10, align 4
  %42 = add i32 %41, 2
  store i32 %42, ptr %10, align 4
  %43 = load ptr, ptr %8, align 8
  %44 = load i32, ptr @hf_cigi3_3_symbol_line_definition_line_width, align 4
  %45 = load ptr, ptr %6, align 8
  %46 = load i32, ptr %10, align 4
  %47 = load i32, ptr @cigi_byte_order, align 4
  %48 = call ptr @proto_tree_add_item(ptr noundef %43, i32 noundef %44, ptr noundef %45, i32 noundef %46, i32 noundef 4, i32 noundef %47)
  %49 = load i32, ptr %10, align 4
  %50 = add i32 %49, 4
  store i32 %50, ptr %10, align 4
  %51 = load ptr, ptr %8, align 8
  %52 = load i32, ptr @hf_cigi3_3_symbol_line_definition_stipple_pattern_length, align 4
  %53 = load ptr, ptr %6, align 8
  %54 = load i32, ptr %10, align 4
  %55 = load i32, ptr @cigi_byte_order, align 4
  %56 = call ptr @proto_tree_add_item(ptr noundef %51, i32 noundef %52, ptr noundef %53, i32 noundef %54, i32 noundef 4, i32 noundef %55)
  %57 = load i32, ptr %10, align 4
  %58 = add i32 %57, 4
  store i32 %58, ptr %10, align 4
  %59 = load ptr, ptr %6, align 8
  %60 = load i32, ptr %10, align 4
  %61 = call i32 @tvb_reported_length_remaining(ptr noundef %59, i32 noundef %60)
  %62 = sdiv i32 %61, 8
  store i32 %62, ptr %11, align 4
  %63 = load i32, ptr %11, align 4
  %64 = icmp slt i32 %63, 30
  br i1 %64, label %65, label %66

65:                                               ; preds = %18
  br label %70

66:                                               ; preds = %18
  %67 = load i32, ptr %11, align 4
  %68 = sext i32 %67 to i64
  call void (ptr, ...) @proto_report_dissector_bug(ptr noundef @.str.2897, ptr noundef @.str.2896, i32 noundef 6802, i64 noundef %68, i64 noundef 30) #6
  unreachable

69:                                               ; No predecessors!
  br label %70

70:                                               ; preds = %69, %65
  store i32 0, ptr %12, align 4
  br label %71

71:                                               ; preds = %98, %70
  %72 = load i32, ptr %12, align 4
  %73 = load i32, ptr %11, align 4
  %74 = icmp slt i32 %72, %73
  br i1 %74, label %75, label %101

75:                                               ; preds = %71
  %76 = load ptr, ptr %8, align 8
  %77 = load i32, ptr %12, align 4
  %78 = sext i32 %77 to i64
  %79 = getelementptr [29 x i32], ptr @hf_cigi3_3_symbol_line_definition_vertex_u, i64 0, i64 %78
  %80 = load i32, ptr %79, align 4
  %81 = load ptr, ptr %6, align 8
  %82 = load i32, ptr %10, align 4
  %83 = load i32, ptr @cigi_byte_order, align 4
  %84 = call ptr @proto_tree_add_item(ptr noundef %76, i32 noundef %80, ptr noundef %81, i32 noundef %82, i32 noundef 4, i32 noundef %83)
  %85 = load i32, ptr %10, align 4
  %86 = add i32 %85, 4
  store i32 %86, ptr %10, align 4
  %87 = load ptr, ptr %8, align 8
  %88 = load i32, ptr %12, align 4
  %89 = sext i32 %88 to i64
  %90 = getelementptr [29 x i32], ptr @hf_cigi3_3_symbol_line_definition_vertex_v, i64 0, i64 %89
  %91 = load i32, ptr %90, align 4
  %92 = load ptr, ptr %6, align 8
  %93 = load i32, ptr %10, align 4
  %94 = load i32, ptr @cigi_byte_order, align 4
  %95 = call ptr @proto_tree_add_item(ptr noundef %87, i32 noundef %91, ptr noundef %92, i32 noundef %93, i32 noundef 4, i32 noundef %94)
  %96 = load i32, ptr %10, align 4
  %97 = add i32 %96, 4
  store i32 %97, ptr %10, align 4
  br label %98

98:                                               ; preds = %75
  %99 = load i32, ptr %12, align 4
  %100 = add i32 %99, 1
  store i32 %100, ptr %12, align 4
  br label %71, !llvm.loop !10

101:                                              ; preds = %71
  %102 = load i32, ptr %10, align 4
  store i32 %102, ptr %5, align 4
  store i32 1, ptr %13, align 4
  br label %103

103:                                              ; preds = %101, %16
  call void @llvm.lifetime.end.p0(i64 4, ptr %12) #5
  call void @llvm.lifetime.end.p0(i64 4, ptr %11) #5
  call void @llvm.lifetime.end.p0(i64 4, ptr %10) #5
  %104 = load i32, ptr %5, align 4
  ret i32 %104
}