; Function Attrs: null_pointer_is_valid sspstrong uwtable
define internal i32 @cigi3_3_add_symbol_line_definition(ptr noundef %0, ptr readnone captures(none) %1, ptr noundef %2, ptr readnone captures(none) %3) #0 {
  %5 = load i32, ptr @cigi_minor_version, align 4
  %6 = icmp slt i32 %5, 3
  br i1 %6, label %.loopexit, label %7

7:                                                ; preds = %4
  %8 = load i32, ptr @hf_cigi3_3_symbol_line_definition_symbol_id, align 4
  %.b47 = load i1, ptr @cigi_byte_order, align 4
  %9 = select i1 %.b47, i32 -2147483648, i32 0
  %10 = tail call ptr @proto_tree_add_item(ptr noundef %2, i32 noundef %8, ptr noundef %0, i32 noundef 0, i32 noundef 2, i32 noundef %9)
  %11 = load i32, ptr @hf_cigi3_3_symbol_line_definition_primitive_type, align 4
  %.b46 = load i1, ptr @cigi_byte_order, align 4
  %12 = select i1 %.b46, i32 -2147483648, i32 0
  %13 = tail call ptr @proto_tree_add_item(ptr noundef %2, i32 noundef %11, ptr noundef %0, i32 noundef 2, i32 noundef 1, i32 noundef %12)
  %14 = load i32, ptr @hf_cigi3_3_symbol_line_definition_stipple_pattern, align 4
  %.b45 = load i1, ptr @cigi_byte_order, align 4
  %15 = select i1 %.b45, i32 -2147483648, i32 0
  %16 = tail call ptr @proto_tree_add_item(ptr noundef %2, i32 noundef %14, ptr noundef %0, i32 noundef 4, i32 noundef 2, i32 noundef %15)
  %17 = load i32, ptr @hf_cigi3_3_symbol_line_definition_line_width, align 4
  %.b44 = load i1, ptr @cigi_byte_order, align 4
  %18 = select i1 %.b44, i32 -2147483648, i32 0
  %19 = tail call ptr @proto_tree_add_item(ptr noundef %2, i32 noundef %17, ptr noundef %0, i32 noundef 6, i32 noundef 4, i32 noundef %18)
  %20 = load i32, ptr @hf_cigi3_3_symbol_line_definition_stipple_pattern_length, align 4
  %.b43 = load i1, ptr @cigi_byte_order, align 4
  %21 = select i1 %.b43, i32 -2147483648, i32 0
  %22 = tail call ptr @proto_tree_add_item(ptr noundef %2, i32 noundef %20, ptr noundef %0, i32 noundef 10, i32 noundef 4, i32 noundef %21)
  %23 = tail call i32 @tvb_reported_length_remaining(ptr noundef %0, i32 noundef 14)
  %24 = sdiv i32 %23, 8
  %25 = icmp slt i32 %23, 240
  br i1 %25, label %.preheader, label %27

.preheader:                                       ; preds = %7
  %26 = icmp sgt i32 %23, 7
  br i1 %26, label %.lr.ph.preheader, label %.loopexit

.lr.ph.preheader:                                 ; preds = %.preheader
  %wide.trip.count = zext nneg i32 %24 to i64
  br label %.lr.ph

27:                                               ; preds = %7
  %28 = zext nneg i32 %24 to i64
  tail call void (ptr, ...) @proto_report_dissector_bug(ptr noundef nonnull @.str.2897, ptr noundef nonnull @.str.2896, i32 noundef 6802, i64 noundef %28, i64 noundef 30) #3
  unreachable

.lr.ph:                                           ; preds = %.lr.ph.preheader, %.lr.ph
  %indvars.iv = phi i64 [ 0, %.lr.ph.preheader ], [ %indvars.iv.next, %.lr.ph ]
  %.04048 = phi i32 [ 14, %.lr.ph.preheader ], [ %38, %.lr.ph ]
  %29 = getelementptr [29 x i32], ptr @hf_cigi3_3_symbol_line_definition_vertex_u, i64 0, i64 %indvars.iv
  %30 = load i32, ptr %29, align 4
  %.b42 = load i1, ptr @cigi_byte_order, align 4
  %31 = select i1 %.b42, i32 -2147483648, i32 0
  %32 = tail call ptr @proto_tree_add_item(ptr noundef %2, i32 noundef %30, ptr noundef %0, i32 noundef %.04048, i32 noundef 4, i32 noundef %31)
  %33 = add nuw i32 %.04048, 4
  %34 = getelementptr [29 x i32], ptr @hf_cigi3_3_symbol_line_definition_vertex_v, i64 0, i64 %indvars.iv
  %35 = load i32, ptr %34, align 4
  %.b = load i1, ptr @cigi_byte_order, align 4
  %36 = select i1 %.b, i32 -2147483648, i32 0
  %37 = tail call ptr @proto_tree_add_item(ptr noundef %2, i32 noundef %35, ptr noundef %0, i32 noundef %33, i32 noundef 4, i32 noundef %36)
  %38 = add nuw i32 %.04048, 8
  %indvars.iv.next = add nuw nsw i64 %indvars.iv, 1
  %exitcond.not = icmp eq i64 %indvars.iv.next, %wide.trip.count
  br i1 %exitcond.not, label %.loopexit, label %.lr.ph, !llvm.loop !8

.loopexit:                                        ; preds = %.lr.ph, %.preheader, %4
  %.039 = phi i32 [ 0, %4 ], [ 14, %.preheader ], [ %38, %.lr.ph ]
  ret i32 %.039
}